Certificate:
    Data:
        Version: 3 (0x2)
        Serial Number:
            66:ec:25:de:9e:24:02:27:6f:e1:38:47:c7:af:02:5a
        Signature Algorithm: sha256WithRSAEncryption
        Issuer: CN=Easy-RSA CA
        Validity
            Not Before: Feb 17 16:05:47 2022 GMT
            Not After : May 22 16:05:47 2024 GMT
        Subject: CN=raxxo2
        Subject Public Key Info:
            Public Key Algorithm: rsaEncryption
                RSA Public-Key: (2048 bit)
                Modulus:
                    00:a4:4f:15:ee:c6:23:10:df:92:b7:61:f4:65:54:
                    e1:b2:34:de:6b:70:b5:53:98:85:a8:c6:6d:21:e3:
                    09:0c:e3:0f:74:c7:cb:5d:b7:e4:51:8d:6f:a7:b1:
                    98:aa:e5:f9:a4:1b:f2:9f:5a:a1:52:bb:04:ba:33:
                    9d:56:a4:f7:79:f7:78:21:bd:7b:ad:16:e7:07:c7:
                    2a:0a:4e:be:1d:bf:22:55:8e:29:43:f5:13:78:83:
                    5d:07:57:c4:9f:1a:ad:43:3a:05:14:4b:4b:a2:10:
                    fd:7d:97:65:79:b8:a9:74:a6:30:e3:8a:5d:fb:94:
                    cc:f0:44:6f:ff:bc:99:10:11:3e:af:38:ad:01:75:
                    c0:77:18:96:f7:dc:2c:2b:b5:73:ff:36:7a:f8:1b:
                    be:7a:1e:a6:67:ab:4b:ba:f6:de:8b:a6:8b:00:bf:
                    d3:06:78:12:45:93:bd:ce:25:9d:a1:1d:ff:1f:bb:
                    05:83:9e:cf:bb:0a:26:18:cd:c3:dd:f7:a0:c9:cc:
                    72:42:c7:87:fa:b7:84:3e:4e:e4:ae:a3:bc:56:39:
                    c4:6b:bd:6a:4b:49:05:42:34:7a:54:83:63:ac:6f:
                    28:26:8a:2a:e0:73:28:00:64:26:68:8f:f8:76:1d:
                    d2:e9:b4:fd:87:08:c3:c9:f2:e5:ac:70:5d:62:3f:
                    e5:55
                Exponent: 65537 (0x10001)
        X509v3 extensions:
            X509v3 Basic Constraints: 
                CA:FALSE
            X509v3 Subject Key Identifier: 
                05:3D:D1:AC:EA:59:A4:5D:3F:3D:8A:70:F5:C2:04:16:7A:31:40:E8
            X509v3 Authority Key Identifier: 
                keyid:4B:76:CD:47:7B:3E:49:49:F1:B0:78:67:5E:11:9E:68:63:8A:26:98
                DirName:/CN=Easy-RSA CA
                serial:6F:D4:51:5D:AD:74:E7:A6:6A:8F:1A:04:27:83:A8:3F:57:1C:73:7F

            X509v3 Extended Key Usage: 
                TLS Web Client Authentication
            X509v3 Key Usage: 
                Digital Signature
    Signature Algorithm: sha256WithRSAEncryption
         99:d5:45:d2:5d:3d:33:5a:6a:7e:8b:8c:3c:49:70:bc:89:ac:
         52:31:2b:3b:50:09:ad:6b:e5:de:f4:5d:ea:91:d8:55:cd:19:
         a1:00:32:cb:b4:66:54:78:b5:fa:af:b1:1e:0a:2f:48:7e:e5:
         ad:33:73:27:e3:49:33:4d:f3:9c:57:ee:31:ac:9b:86:56:48:
         f9:40:5e:06:cd:aa:a3:41:ba:1b:2d:68:1c:69:aa:ae:93:b3:
         2a:1e:f3:7c:e0:9a:b4:01:e5:d4:cb:0e:76:ec:01:73:72:57:
         41:c6:83:39:59:ca:9d:07:e0:48:23:62:ce:8c:65:1e:5b:5a:
         79:59:c2:8f:9f:b5:21:e2:a5:9c:83:2d:d2:39:26:fa:82:93:
         92:0c:89:ac:ec:c6:6f:68:17:52:39:04:f9:fe:bd:63:13:4a:
         40:89:41:58:85:d6:a8:3b:ff:9b:1e:3b:e0:b0:b1:cb:ac:f4:
         fa:fc:9d:6d:d1:d4:d6:68:7c:c5:ef:6a:8b:cb:ea:7c:94:10:
         d2:61:19:2f:c4:30:78:41:27:d7:85:5e:a5:45:10:e8:41:e8:
         ca:9c:3b:e6:a3:e7:f5:99:d5:fd:d0:ed:cc:f4:8b:60:66:be:
         af:70:ef:57:fa:c7:97:fb:5e:81:e8:7c:ab:c6:9c:01:c2:fc:
         35:10:6b:20
-----BEGIN CERTIFICATE-----
MIIDVDCCAjygAwIBAgIQZuwl3p4kAidv4ThHx68CWjANBgkqhkiG9w0BAQsFADAW
MRQwEgYDVQQDDAtFYXN5LVJTQSBDQTAeFw0yMjAyMTcxNjA1NDdaFw0yNDA1MjIx
NjA1NDdaMBExDzANBgNVBAMMBnJheHhvMjCCASIwDQYJKoZIhvcNAQEBBQADggEP
ADCCAQoCggEBAKRPFe7GIxDfkrdh9GVU4bI03mtwtVOYhajGbSHjCQzjD3THy123
5FGNb6exmKrl+aQb8p9aoVK7BLoznVak93n3eCG9e60W5wfHKgpOvh2/IlWOKUP1
E3iDXQdXxJ8arUM6BRRLS6IQ/X2XZXm4qXSmMOOKXfuUzPBEb/+8mRARPq84rQF1
wHcYlvfcLCu1c/82evgbvnoepmerS7r23oumiwC/0wZ4EkWTvc4lnaEd/x+7BYOe
z7sKJhjNw933oMnMckLHh/q3hD5O5K6jvFY5xGu9aktJBUI0elSDY6xvKCaKKuBz
KABkJmiP+HYd0um0/YcIw8ny5axwXWI/5VUCAwEAAaOBojCBnzAJBgNVHRMEAjAA
MB0GA1UdDgQWBBQFPdGs6lmkXT89inD1wgQWejFA6DBRBgNVHSMESjBIgBRLds1H
ez5JSfGweGdeEZ5oY4ommKEapBgwFjEUMBIGA1UEAwwLRWFzeS1SU0EgQ0GCFG/U
UV2tdOemao8aBCeDqD9XHHN/MBMGA1UdJQQMMAoGCCsGAQUFBwMCMAsGA1UdDwQE
AwIHgDANBgkqhkiG9w0BAQsFAAOCAQEAmdVF0l09M1pqfouMPElwvImsUjErO1AJ
rWvl3vRd6pHYVc0ZoQAyy7RmVHi1+q+xHgovSH7lrTNzJ+NJM03znFfuMaybhlZI
+UBeBs2qo0G6Gy1oHGmqrpOzKh7zfOCatAHl1MsOduwBc3JXQcaDOVnKnQfgSCNi
zoxlHltaeVnCj5+1IeKlnIMt0jkm+oKTkgyJrOzGb2gXUjkE+f69YxNKQIlBWIXW
qDv/mx474LCxy6z0+vydbdHU1mh8xe9qi8vqfJQQ0mEZL8QweEEn14VepUUQ6EHo
ypw75qPn9ZnV/dDtzPSLYGa+r3DvV/rHl/tegeh8q8acAcL8NRBrIA==
-----END CERTIFICATE-----
