Certificate:
    Data:
        Version: 3 (0x2)
        Serial Number:
            92:e6:b6:c8:45:17:64:86:9e:9d:44:11:49:a9:43:ed
        Signature Algorithm: sha256WithRSAEncryption
        Issuer: CN=Easy-RSA CA
        Validity
            Not Before: Feb 17 16:03:50 2022 GMT
            Not After : May 22 16:03:50 2024 GMT
        Subject: CN=186.79.9.95
        Subject Public Key Info:
            Public Key Algorithm: rsaEncryption
                RSA Public-Key: (2048 bit)
                Modulus:
                    00:b1:5b:ff:d9:2f:f8:d3:dc:c9:97:2c:7d:49:3c:
                    3c:36:12:6a:09:e7:da:a8:af:6e:b0:98:7e:b1:99:
                    c5:7f:a0:92:90:9e:bf:1f:7e:a2:38:87:01:4b:53:
                    4b:c2:31:f1:0a:8d:2a:1a:52:cf:44:88:ee:56:bd:
                    4f:89:2b:b9:e5:26:90:2b:4f:d6:ab:d7:cf:7e:77:
                    c9:e8:d2:50:a4:b6:68:1f:4b:cc:98:c4:40:49:2b:
                    8f:20:b4:01:d2:bb:93:0d:a3:a4:01:7c:57:74:02:
                    2e:a4:01:33:13:d6:bb:bb:c3:54:f7:31:b5:24:77:
                    2b:64:42:6a:3d:25:eb:f0:2a:6d:9b:9c:94:f9:04:
                    ec:93:d3:64:07:0c:a6:da:ff:60:e8:03:41:e1:65:
                    4e:e9:b5:3d:14:e6:4f:67:fe:8b:5f:09:ce:57:e4:
                    86:a8:ef:d5:dc:85:cc:72:3b:5d:e2:8b:8f:19:dd:
                    2b:d1:96:be:c9:56:df:32:82:2b:74:1a:53:a3:ba:
                    20:71:5c:ad:e8:43:c9:cb:a4:34:f1:f9:34:21:e3:
                    65:c8:bd:0c:14:8f:ef:10:b3:6e:90:88:8e:1b:9a:
                    da:ff:c0:cf:62:80:ee:a4:f3:97:f8:02:ae:75:03:
                    56:3a:c6:6a:6c:75:e7:84:3c:a1:04:87:52:ba:e3:
                    7b:e5
                Exponent: 65537 (0x10001)
        X509v3 extensions:
            X509v3 Basic Constraints: 
                CA:FALSE
            X509v3 Subject Key Identifier: 
                A4:71:36:0D:3E:7E:F0:A0:8E:86:46:54:8D:9F:CF:94:D1:77:4C:91
            X509v3 Authority Key Identifier: 
                keyid:4B:76:CD:47:7B:3E:49:49:F1:B0:78:67:5E:11:9E:68:63:8A:26:98
                DirName:/CN=Easy-RSA CA
                serial:6F:D4:51:5D:AD:74:E7:A6:6A:8F:1A:04:27:83:A8:3F:57:1C:73:7F

            X509v3 Extended Key Usage: 
                TLS Web Server Authentication
            X509v3 Key Usage: 
                Digital Signature, Key Encipherment
            X509v3 Subject Alternative Name: 
                IP Address:186.79.9.95
    Signature Algorithm: sha256WithRSAEncryption
         02:4c:2f:f4:9d:b2:e4:a6:3e:a5:bf:90:28:bb:59:96:36:42:
         40:a0:1a:2c:fe:ce:3f:20:dc:7c:a8:66:ba:60:43:21:79:58:
         e7:50:7d:84:07:64:ae:07:10:51:ea:0d:8e:9f:f9:35:1e:9e:
         e9:0b:d6:1d:9b:48:76:3a:5e:38:45:4c:25:9d:4c:05:09:b2:
         79:6f:6a:13:3a:c9:1f:3e:50:53:db:72:a9:b4:ab:98:e5:44:
         61:56:50:64:fc:bc:81:9d:03:b2:8a:08:97:09:3d:81:64:00:
         89:1c:3b:44:76:c9:76:a2:2f:a2:2a:07:50:a7:41:e2:8c:9e:
         c6:8f:a6:ce:47:69:ac:b6:5c:8d:50:13:cd:e8:d9:b6:b0:fb:
         5d:b9:16:1e:cb:1a:12:ed:ce:de:84:68:17:78:ae:3a:d1:20:
         ee:43:94:4a:f8:08:a3:ae:9b:10:33:e7:89:b5:cd:db:c5:1d:
         c9:9a:45:9e:e2:a5:e7:b0:33:66:e5:30:74:7f:5f:28:a7:f7:
         e8:62:3f:e5:68:89:be:56:be:15:5e:5e:6e:56:e0:25:20:1a:
         7f:27:4a:18:7f:ca:71:37:4b:f4:13:ff:d7:ca:7d:9e:c8:7e:
         6a:6a:39:69:e3:94:49:64:4f:48:b2:4f:3c:bd:c8:25:27:b1:
         33:5d:bb:25
-----BEGIN CERTIFICATE-----
MIIDazCCAlOgAwIBAgIRAJLmtshFF2SGnp1EEUmpQ+0wDQYJKoZIhvcNAQELBQAw
FjEUMBIGA1UEAwwLRWFzeS1SU0EgQ0EwHhcNMjIwMjE3MTYwMzUwWhcNMjQwNTIy
MTYwMzUwWjAWMRQwEgYDVQQDDAsxODYuNzkuOS45NTCCASIwDQYJKoZIhvcNAQEB
BQADggEPADCCAQoCggEBALFb/9kv+NPcyZcsfUk8PDYSagnn2qivbrCYfrGZxX+g
kpCevx9+ojiHAUtTS8Ix8QqNKhpSz0SI7la9T4krueUmkCtP1qvXz353yejSUKS2
aB9LzJjEQEkrjyC0AdK7kw2jpAF8V3QCLqQBMxPWu7vDVPcxtSR3K2RCaj0l6/Aq
bZuclPkE7JPTZAcMptr/YOgDQeFlTum1PRTmT2f+i18Jzlfkhqjv1dyFzHI7XeKL
jxndK9GWvslW3zKCK3QaU6O6IHFcrehDycukNPH5NCHjZci9DBSP7xCzbpCIjhua
2v/Az2KA7qTzl/gCrnUDVjrGamx154Q8oQSHUrrje+UCAwEAAaOBszCBsDAJBgNV
HRMEAjAAMB0GA1UdDgQWBBSkcTYNPn7woI6GRlSNn8+U0XdMkTBRBgNVHSMESjBI
gBRLds1Hez5JSfGweGdeEZ5oY4ommKEapBgwFjEUMBIGA1UEAwwLRWFzeS1SU0Eg
Q0GCFG/UUV2tdOemao8aBCeDqD9XHHN/MBMGA1UdJQQMMAoGCCsGAQUFBwMBMAsG
A1UdDwQEAwIFoDAPBgNVHREECDAGhwS6TwlfMA0GCSqGSIb3DQEBCwUAA4IBAQAC
TC/0nbLkpj6lv5Aou1mWNkJAoBos/s4/INx8qGa6YEMheVjnUH2EB2SuBxBR6g2O
n/k1Hp7pC9Ydm0h2Ol44RUwlnUwFCbJ5b2oTOskfPlBT23KptKuY5URhVlBk/LyB
nQOyigiXCT2BZACJHDtEdsl2oi+iKgdQp0HijJ7Gj6bOR2mstlyNUBPN6Nm2sPtd
uRYeyxoS7c7ehGgXeK460SDuQ5RK+AijrpsQM+eJtc3bxR3JmkWe4qXnsDNm5TB0
f18op/foYj/laIm+Vr4VXl5uVuAlIBp/J0oYf8pxN0v0E//Xyn2eyH5qajlp45RJ
ZE9Isk88vcglJ7EzXbsl
-----END CERTIFICATE-----
